target datalayout = "e-m:e-p270:32:32-p271:32:32-p272:64:64-i64:64-i128:128-f80:128-n8:16:32:64-S128"
target triple = "x86_64-pc-linux-gnu"

; Function Attrs: mustprogress nounwind uwtable
define dso_local noundef i64 @_ZN5cmsys11SystemTools9CountCharEPKcc(ptr noundef %0, i8 noundef signext %1) #4 align 2 {
  %3 = alloca ptr, align 8
  %4 = alloca i8, align 1
  %5 = alloca i64, align 8
  store ptr %0, ptr %3, align 8, !tbaa !13
  store i8 %1, ptr %4, align 1, !tbaa !16
  call void @llvm.lifetime.start.p0(i64 8, ptr %5) #1
  store i64 0, ptr %5, align 8, !tbaa !15
  %6 = load ptr, ptr %3, align 8, !tbaa !13
  %7 = icmp ne ptr %6, null
  br i1 %7, label %8, label %27

8:                                                ; preds = %2
  br label %9

9:                                                ; preds = %23, %8
  %10 = load ptr, ptr %3, align 8, !tbaa !13
  %11 = load i8, ptr %10, align 1, !tbaa !16
  %12 = icmp ne i8 %11, 0
  br i1 %12, label %13, label %26

13:                                               ; preds = %9
  %14 = load ptr, ptr %3, align 8, !tbaa !13
  %15 = load i8, ptr %14, align 1, !tbaa !16
  %16 = sext i8 %15 to i32
  %17 = load i8, ptr %4, align 1, !tbaa !16
  %18 = sext i8 %17 to i32
  %19 = icmp eq i32 %16, %18
  br i1 %19, label %20, label %23

20:                                               ; preds = %13
  %21 = load i64, ptr %5, align 8, !tbaa !15
  %22 = add i64 %21, 1
  store i64 %22, ptr %5, align 8, !tbaa !15
  br label %23

23:                                               ; preds = %20, %13
  %24 = load ptr, ptr %3, align 8, !tbaa !13
  %25 = getelementptr inbounds nuw i8, ptr %24, i32 1
  store ptr %25, ptr %3, align 8, !tbaa !13
  br label %9, !llvm.loop !84

26:                                               ; preds = %9
  br label %27

27:                                               ; preds = %26, %2
  %28 = load i64, ptr %5, align 8, !tbaa !15
  call void @llvm.lifetime.end.p0(i64 8, ptr %5) #1
  ret i64 %28
}