; Function Attrs: mustprogress nofree norecurse nosync nounwind willreturn memory(argmem: read) uwtable
define dso_local noundef i64 @_ZN5cmsys11SystemTools9CountCharEPKcc(ptr noundef readonly %0, i8 noundef signext %1) local_unnamed_addr #16 align 2 {
  %.not = icmp eq ptr %0, null
  br i1 %.not, label %.loopexit, label %.preheader

.preheader:                                       ; preds = %2
  %3 = load i8, ptr %0, align 1, !tbaa !20
  %.not910 = icmp eq i8 %3, 0
  br i1 %.not910, label %.loopexit, label %.lr.ph

.lr.ph:                                           ; preds = %.preheader, %.lr.ph
  %4 = phi i8 [ %8, %.lr.ph ], [ %3, %.preheader ]
  %.112 = phi i64 [ %spec.select, %.lr.ph ], [ 0, %.preheader ]
  %.0611 = phi ptr [ %7, %.lr.ph ], [ %0, %.preheader ]
  %5 = icmp eq i8 %4, %1
  %6 = zext i1 %5 to i64
  %spec.select = add i64 %.112, %6
  %7 = getelementptr inbounds nuw i8, ptr %.0611, i64 1
  %8 = load i8, ptr %7, align 1, !tbaa !20
  %.not9 = icmp eq i8 %8, 0
  br i1 %.not9, label %.loopexit, label %.lr.ph, !llvm.loop !61

.loopexit:                                        ; preds = %.lr.ph, %.preheader, %2
  %.0 = phi i64 [ 0, %2 ], [ 0, %.preheader ], [ %spec.select, %.lr.ph ]
  ret i64 %.0
}